(dp0
Vengine
p1
Vxelatex
p2
sVpackages
p3
c__builtin__
set
p4
((lp5
Vhyperref
p6
aVtikz
p7
aVgeometry
p8
aVbabel
p9
aVfontspec
p10
aVcrop
p11
aVgraphicx
p12
aVparskip
p13
atp14
Rp15
sVfiles_with_guttermarks
p16
g4
((lp17
V/usr/local/texlive/2012/texmf-dist/tex/latex/crop/crop.sty
p18
aS'diary-personal-2016-sv.tex'
p19
atp20
Rp21
sVsynctex
p22
I01
s.