(dp0
Vengine
p1
Vxelatex
p2
sVpackages
p3
c__builtin__
set
p4
((lp5
Vtikz
p6
aVgeometry
p7
aVbabel
p8
aVfontspec
p9
aVcrop
p10
aVgraphicx
p11
aVparskip
p12
atp13
Rp14
sVfiles_with_guttermarks
p15
g4
((lp16
S'diary-personal-2015-sv.tex'
p17
atp18
Rp19
sVsynctex
p20
I01
s.